target datalayout = "e-m:e-p270:32:32-p271:32:32-p272:64:64-i64:64-i128:128-f80:128-n8:16:32:64-S128"
target triple = "x86_64-pc-linux-gnu"

%struct.Ver_Man_t_ = type { i32, i32, i32, ptr, ptr, i32, ptr, ptr, ptr, ptr, i32, i32, [2000 x i8], ptr, ptr, ptr, ptr }

@.str = private unnamed_addr constant [8 x i8] c"%s: %s\0A\00", align 1
@.str.1 = private unnamed_addr constant [18 x i8] c"%s (line %d): %s\0A\00", align 1
@.str.6 = private unnamed_addr constant [42 x i8] c"Cannot find closing bracket in this line.\00", align 1

; Function Attrs: nounwind uwtable
define internal void @Ver_ParseFreeData(ptr noundef %0) #0 {
  %2 = alloca ptr, align 8
  store ptr %0, ptr %2, align 8, !tbaa !12
  %3 = load ptr, ptr %2, align 8, !tbaa !12
  %4 = getelementptr inbounds nuw %struct.Ver_Man_t_, ptr %3, i32 0, i32 7
  %5 = load ptr, ptr %4, align 8, !tbaa !24
  %6 = icmp ne ptr %5, null
  br i1 %6, label %7, label %13

7:                                                ; preds = %1
  %8 = load ptr, ptr %2, align 8, !tbaa !12
  %9 = getelementptr inbounds nuw %struct.Ver_Man_t_, ptr %8, i32 0, i32 7
  %10 = load ptr, ptr %9, align 8, !tbaa !24
  call void @Abc_DesFree(ptr noundef %10, ptr noundef null)
  %11 = load ptr, ptr %2, align 8, !tbaa !12
  %12 = getelementptr inbounds nuw %struct.Ver_Man_t_, ptr %11, i32 0, i32 7
  store ptr null, ptr %12, align 8, !tbaa !24
  br label %13

13:                                               ; preds = %7, %1
  ret void
}

; Function Attrs: nounwind uwtable
define void @Ver_ParsePrintErrorMessage(ptr noundef %0) #0 {
  %2 = alloca ptr, align 8
  store ptr %0, ptr %2, align 8, !tbaa !12
  %3 = load ptr, ptr %2, align 8, !tbaa !12
  %4 = getelementptr inbounds nuw %struct.Ver_Man_t_, ptr %3, i32 0, i32 11
  store i32 1, ptr %4, align 4, !tbaa !56
  %5 = load ptr, ptr %2, align 8, !tbaa !12
  %6 = getelementptr inbounds nuw %struct.Ver_Man_t_, ptr %5, i32 0, i32 10
  %7 = load i32, ptr %6, align 8, !tbaa !41
  %8 = icmp ne i32 %7, 0
  br i1 %8, label %9, label %20

9:                                                ; preds = %1
  %10 = load ptr, ptr %2, align 8, !tbaa !12
  %11 = getelementptr inbounds nuw %struct.Ver_Man_t_, ptr %10, i32 0, i32 9
  %12 = load ptr, ptr %11, align 8, !tbaa !30
  %13 = load ptr, ptr %2, align 8, !tbaa !12
  %14 = getelementptr inbounds nuw %struct.Ver_Man_t_, ptr %13, i32 0, i32 3
  %15 = load ptr, ptr %14, align 8, !tbaa !27
  %16 = load ptr, ptr %2, align 8, !tbaa !12
  %17 = getelementptr inbounds nuw %struct.Ver_Man_t_, ptr %16, i32 0, i32 12
  %18 = getelementptr inbounds [2000 x i8], ptr %17, i64 0, i64 0
  %19 = call i32 (ptr, ptr, ...) @fprintf(ptr noundef %12, ptr noundef @.str, ptr noundef %15, ptr noundef %18) #10
  br label %35

20:                                               ; preds = %1
  %21 = load ptr, ptr %2, align 8, !tbaa !12
  %22 = getelementptr inbounds nuw %struct.Ver_Man_t_, ptr %21, i32 0, i32 9
  %23 = load ptr, ptr %22, align 8, !tbaa !30
  %24 = load ptr, ptr %2, align 8, !tbaa !12
  %25 = getelementptr inbounds nuw %struct.Ver_Man_t_, ptr %24, i32 0, i32 3
  %26 = load ptr, ptr %25, align 8, !tbaa !27
  %27 = load ptr, ptr %2, align 8, !tbaa !12
  %28 = getelementptr inbounds nuw %struct.Ver_Man_t_, ptr %27, i32 0, i32 4
  %29 = load ptr, ptr %28, align 8, !tbaa !28
  %30 = call i32 @Ver_StreamGetLineNumber(ptr noundef %29)
  %31 = load ptr, ptr %2, align 8, !tbaa !12
  %32 = getelementptr inbounds nuw %struct.Ver_Man_t_, ptr %31, i32 0, i32 12
  %33 = getelementptr inbounds [2000 x i8], ptr %32, i64 0, i64 0
  %34 = call i32 (ptr, ptr, ...) @fprintf(ptr noundef %23, ptr noundef @.str.1, ptr noundef %26, i32 noundef %30, ptr noundef %33) #10
  br label %35

35:                                               ; preds = %20, %9
  %36 = load ptr, ptr %2, align 8, !tbaa !12
  call void @Ver_ParseFreeData(ptr noundef %36)
  ret void
}

; Function Attrs: inlinehint nounwind willreturn memory(read) uwtable
define available_externally i32 @atoi(ptr noundef nonnull %0) #5 {
  %2 = alloca ptr, align 8
  store ptr %0, ptr %2, align 8, !tbaa !3
  %3 = load ptr, ptr %2, align 8, !tbaa !3
  %4 = call i64 @strtol(ptr noundef %3, ptr noundef null, i32 noundef 10) #10
  %5 = trunc i64 %4 to i32
  ret i32 %5
}

; Function Attrs: nounwind uwtable
define i32 @Ver_ParseSignalPrefix(ptr noundef %0, ptr noundef %1, ptr noundef %2, ptr noundef %3) #0 {
  %5 = alloca i32, align 4
  %6 = alloca ptr, align 8
  %7 = alloca ptr, align 8
  %8 = alloca ptr, align 8
  %9 = alloca ptr, align 8
  %10 = alloca ptr, align 8
  %11 = alloca ptr, align 8
  %12 = alloca i32, align 4
  %13 = alloca i32, align 4
  %14 = alloca i32, align 4
  store ptr %0, ptr %6, align 8, !tbaa !12
  store ptr %1, ptr %7, align 8, !tbaa !64
  store ptr %2, ptr %8, align 8, !tbaa !62
  store ptr %3, ptr %9, align 8, !tbaa !62
  call void @llvm.lifetime.start.p0(i64 8, ptr %10) #10
  %15 = load ptr, ptr %7, align 8, !tbaa !64
  %16 = load ptr, ptr %15, align 8, !tbaa !3
  store ptr %16, ptr %10, align 8, !tbaa !3
  call void @llvm.lifetime.start.p0(i64 8, ptr %11) #10
  call void @llvm.lifetime.start.p0(i64 4, ptr %12) #10
  call void @llvm.lifetime.start.p0(i64 4, ptr %13) #10
  %17 = load ptr, ptr %10, align 8, !tbaa !3
  %18 = getelementptr inbounds i8, ptr %17, i64 1
  %19 = call i32 @atoi(ptr noundef %18) #12
  store i32 %19, ptr %12, align 4, !tbaa !10
  br label %20

20:                                               ; preds = %37, %4
  %21 = load ptr, ptr %10, align 8, !tbaa !3
  %22 = load i8, ptr %21, align 1, !tbaa !66
  %23 = sext i8 %22 to i32
  %24 = icmp ne i32 %23, 0
  br i1 %24, label %25, label %35

25:                                               ; preds = %20
  %26 = load ptr, ptr %10, align 8, !tbaa !3
  %27 = load i8, ptr %26, align 1, !tbaa !66
  %28 = sext i8 %27 to i32
  %29 = icmp ne i32 %28, 58
  br i1 %29, label %30, label %35

30:                                               ; preds = %25
  %31 = load ptr, ptr %10, align 8, !tbaa !3
  %32 = load i8, ptr %31, align 1, !tbaa !66
  %33 = sext i8 %32 to i32
  %34 = icmp ne i32 %33, 93
  br label %35

35:                                               ; preds = %30, %25, %20
  %36 = phi i1 [ false, %25 ], [ false, %20 ], [ %34, %30 ]
  br i1 %36, label %37, label %40

37:                                               ; preds = %35
  %38 = load ptr, ptr %10, align 8, !tbaa !3
  %39 = getelementptr inbounds nuw i8, ptr %38, i32 1
  store ptr %39, ptr %10, align 8, !tbaa !3
  br label %20, !llvm.loop !67

40:                                               ; preds = %35
  %41 = load ptr, ptr %10, align 8, !tbaa !3
  %42 = load i8, ptr %41, align 1, !tbaa !66
  %43 = sext i8 %42 to i32
  %44 = icmp eq i32 %43, 0
  br i1 %44, label %45, label %51

45:                                               ; preds = %40
  %46 = load ptr, ptr %6, align 8, !tbaa !12
  %47 = getelementptr inbounds nuw %struct.Ver_Man_t_, ptr %46, i32 0, i32 12
  %48 = getelementptr inbounds [2000 x i8], ptr %47, i64 0, i64 0
  %49 = call i32 (ptr, ptr, ...) @sprintf(ptr noundef %48, ptr noundef @.str.6) #10
  %50 = load ptr, ptr %6, align 8, !tbaa !12
  call void @Ver_ParsePrintErrorMessage(ptr noundef %50)
  store i32 0, ptr %5, align 4
  store i32 1, ptr %14, align 4
  br label %130

51:                                               ; preds = %40
  %52 = load ptr, ptr %10, align 8, !tbaa !3
  %53 = load i8, ptr %52, align 1, !tbaa !66
  %54 = sext i8 %53 to i32
  %55 = icmp eq i32 %54, 93
  br i1 %55, label %56, label %58

56:                                               ; preds = %51
  %57 = load i32, ptr %12, align 4, !tbaa !10
  store i32 %57, ptr %13, align 4, !tbaa !10
  br label %123

58:                                               ; preds = %51
  %59 = load ptr, ptr %10, align 8, !tbaa !3
  %60 = getelementptr inbounds i8, ptr %59, i64 1
  %61 = call i32 @atoi(ptr noundef %60) #12
  store i32 %61, ptr %13, align 4, !tbaa !10
  br label %62

62:                                               ; preds = %74, %58
  %63 = load ptr, ptr %10, align 8, !tbaa !3
  %64 = load i8, ptr %63, align 1, !tbaa !66
  %65 = sext i8 %64 to i32
  %66 = icmp ne i32 %65, 0
  br i1 %66, label %67, label %72

67:                                               ; preds = %62
  %68 = load ptr, ptr %10, align 8, !tbaa !3
  %69 = load i8, ptr %68, align 1, !tbaa !66
  %70 = sext i8 %69 to i32
  %71 = icmp ne i32 %70, 93
  br label %72

72:                                               ; preds = %67, %62
  %73 = phi i1 [ false, %62 ], [ %71, %67 ]
  br i1 %73, label %74, label %77

74:                                               ; preds = %72
  %75 = load ptr, ptr %10, align 8, !tbaa !3
  %76 = getelementptr inbounds nuw i8, ptr %75, i32 1
  store ptr %76, ptr %10, align 8, !tbaa !3
  br label %62, !llvm.loop !68

77:                                               ; preds = %72
  %78 = load ptr, ptr %10, align 8, !tbaa !3
  %79 = load i8, ptr %78, align 1, !tbaa !66
  %80 = sext i8 %79 to i32
  %81 = icmp eq i32 %80, 0
  br i1 %81, label %82, label %88

82:                                               ; preds = %77
  %83 = load ptr, ptr %6, align 8, !tbaa !12
  %84 = getelementptr inbounds nuw %struct.Ver_Man_t_, ptr %83, i32 0, i32 12
  %85 = getelementptr inbounds [2000 x i8], ptr %84, i64 0, i64 0
  %86 = call i32 (ptr, ptr, ...) @sprintf(ptr noundef %85, ptr noundef @.str.6) #10
  %87 = load ptr, ptr %6, align 8, !tbaa !12
  call void @Ver_ParsePrintErrorMessage(ptr noundef %87)
  store i32 0, ptr %5, align 4
  store i32 1, ptr %14, align 4
  br label %130

88:                                               ; preds = %77
  %89 = load ptr, ptr %10, align 8, !tbaa !3
  %90 = getelementptr inbounds nuw i8, ptr %89, i32 1
  store ptr %90, ptr %10, align 8, !tbaa !3
  %91 = load ptr, ptr %10, align 8, !tbaa !3
  %92 = load i8, ptr %91, align 1, !tbaa !66
  %93 = sext i8 %92 to i32
  %94 = icmp eq i32 %93, 92
  br i1 %94, label %95, label %122

95:                                               ; preds = %88
  %96 = load ptr, ptr %10, align 8, !tbaa !3
  %97 = getelementptr inbounds nuw i8, ptr %96, i32 1
  store ptr %97, ptr %10, align 8, !tbaa !3
  %98 = load ptr, ptr %10, align 8, !tbaa !3
  store ptr %98, ptr %11, align 8, !tbaa !3
  br label %99

99:                                               ; preds = %111, %95
  %100 = load ptr, ptr %11, align 8, !tbaa !3
  %101 = load i8, ptr %100, align 1, !tbaa !66
  %102 = sext i8 %101 to i32
  %103 = icmp ne i32 %102, 0
  br i1 %103, label %104, label %109

104:                                              ; preds = %99
  %105 = load ptr, ptr %11, align 8, !tbaa !3
  %106 = load i8, ptr %105, align 1, !tbaa !66
  %107 = sext i8 %106 to i32
  %108 = icmp ne i32 %107, 32
  br label %109

109:                                              ; preds = %104, %99
  %110 = phi i1 [ false, %99 ], [ %108, %104 ]
  br i1 %110, label %111, label %114

111:                                              ; preds = %109
  %112 = load ptr, ptr %11, align 8, !tbaa !3
  %113 = getelementptr inbounds nuw i8, ptr %112, i32 1
  store ptr %113, ptr %11, align 8, !tbaa !3
  br label %99, !llvm.loop !69

114:                                              ; preds = %109
  %115 = load ptr, ptr %11, align 8, !tbaa !3
  %116 = load i8, ptr %115, align 1, !tbaa !66
  %117 = sext i8 %116 to i32
  %118 = icmp eq i32 %117, 32
  br i1 %118, label %119, label %121

119:                                              ; preds = %114
  %120 = load ptr, ptr %11, align 8, !tbaa !3
  store i8 0, ptr %120, align 1, !tbaa !66
  br label %121

121:                                              ; preds = %119, %114
  br label %122

122:                                              ; preds = %121, %88
  br label %123

123:                                              ; preds = %122, %56
  %124 = load ptr, ptr %10, align 8, !tbaa !3
  %125 = load ptr, ptr %7, align 8, !tbaa !64
  store ptr %124, ptr %125, align 8, !tbaa !3
  %126 = load i32, ptr %12, align 4, !tbaa !10
  %127 = load ptr, ptr %8, align 8, !tbaa !62
  store i32 %126, ptr %127, align 4, !tbaa !10
  %128 = load i32, ptr %13, align 4, !tbaa !10
  %129 = load ptr, ptr %9, align 8, !tbaa !62
  store i32 %128, ptr %129, align 4, !tbaa !10
  store i32 1, ptr %5, align 4
  store i32 1, ptr %14, align 4
  br label %130

130:                                              ; preds = %123, %82, %45
  call void @llvm.lifetime.end.p0(i64 4, ptr %13) #10
  call void @llvm.lifetime.end.p0(i64 4, ptr %12) #10
  call void @llvm.lifetime.end.p0(i64 8, ptr %11) #10
  call void @llvm.lifetime.end.p0(i64 8, ptr %10) #10
  %131 = load i32, ptr %5, align 4
  ret i32 %131
}