; Function Attrs: nounwind uwtable
define range(i32 0, 2) i32 @Ver_ParseSignalPrefix(ptr noundef %0, ptr noundef captures(none) %1, ptr noundef writeonly captures(none) %2, ptr noundef writeonly captures(none) %3) local_unnamed_addr #0 {
  %5 = load ptr, ptr %1, align 8, !tbaa !92
  %6 = getelementptr inbounds nuw i8, ptr %5, i64 1
  %7 = tail call i64 @strtol(ptr noundef nonnull captures(none) %6, ptr noundef null, i32 noundef 10) #20
  %8 = trunc i64 %7 to i32
  br label %9

9:                                                ; preds = %11, %4
  %.039 = phi ptr [ %5, %4 ], [ %12, %11 ]
  %10 = load i8, ptr %.039, align 1, !tbaa !73
  switch i8 %10, label %11 [
    i8 0, label %13
    i8 93, label %.loopexit
    i8 58, label %33
  ]

11:                                               ; preds = %9
  %12 = getelementptr inbounds nuw i8, ptr %.039, i64 1
  br label %9, !llvm.loop !93

13:                                               ; preds = %9
  %14 = getelementptr inbounds nuw i8, ptr %0, i64 80
  tail call void @llvm.memcpy.p0.p0.i64(ptr noundef nonnull align 1 dereferenceable(42) %14, ptr noundef nonnull align 1 dereferenceable(42) @.str.6, i64 42, i1 false)
  %15 = getelementptr inbounds nuw i8, ptr %0, i64 76
  store i32 1, ptr %15, align 4, !tbaa !43
  %16 = getelementptr inbounds nuw i8, ptr %0, i64 72
  %17 = load i32, ptr %16, align 8, !tbaa !44
  %.not.i = icmp eq i32 %17, 0
  %18 = getelementptr inbounds nuw i8, ptr %0, i64 64
  %19 = load ptr, ptr %18, align 8, !tbaa !19
  %20 = getelementptr inbounds nuw i8, ptr %0, i64 16
  %21 = load ptr, ptr %20, align 8, !tbaa !3
  br i1 %.not.i, label %24, label %22

22:                                               ; preds = %13
  %23 = tail call i32 (ptr, ptr, ...) @fprintf(ptr noundef %19, ptr noundef nonnull @.str, ptr noundef %21, ptr noundef nonnull %14) #20
  br label %29

24:                                               ; preds = %13
  %25 = getelementptr inbounds nuw i8, ptr %0, i64 24
  %26 = load ptr, ptr %25, align 8, !tbaa !17
  %27 = tail call i32 @Ver_StreamGetLineNumber(ptr noundef %26) #20
  %28 = tail call i32 (ptr, ptr, ...) @fprintf(ptr noundef %19, ptr noundef nonnull @.str.1, ptr noundef %21, i32 noundef %27, ptr noundef nonnull %14) #20
  br label %29

29:                                               ; preds = %24, %22
  %30 = getelementptr inbounds nuw i8, ptr %0, i64 48
  %31 = load ptr, ptr %30, align 8, !tbaa !33
  %.not.i.i = icmp eq ptr %31, null
  br i1 %.not.i.i, label %Ver_ParsePrintErrorMessage.exit, label %32

32:                                               ; preds = %29
  tail call void @Abc_DesFree(ptr noundef nonnull %31, ptr noundef null) #20
  store ptr null, ptr %30, align 8, !tbaa !33
  br label %Ver_ParsePrintErrorMessage.exit

33:                                               ; preds = %9
  %34 = getelementptr inbounds nuw i8, ptr %.039, i64 1
  %35 = tail call i64 @strtol(ptr noundef nonnull captures(none) %34, ptr noundef null, i32 noundef 10) #20
  %36 = trunc i64 %35 to i32
  br label %37

37:                                               ; preds = %39, %33
  %.2 = phi ptr [ %.039, %33 ], [ %40, %39 ]
  %38 = load i8, ptr %.2, align 1, !tbaa !73
  switch i8 %38, label %39 [
    i8 0, label %41
    i8 93, label %61
  ]

39:                                               ; preds = %37
  %40 = getelementptr inbounds nuw i8, ptr %.2, i64 1
  br label %37, !llvm.loop !94

41:                                               ; preds = %37
  %42 = getelementptr inbounds nuw i8, ptr %0, i64 80
  tail call void @llvm.memcpy.p0.p0.i64(ptr noundef nonnull align 1 dereferenceable(42) %42, ptr noundef nonnull align 1 dereferenceable(42) @.str.6, i64 42, i1 false)
  %43 = getelementptr inbounds nuw i8, ptr %0, i64 76
  store i32 1, ptr %43, align 4, !tbaa !43
  %44 = getelementptr inbounds nuw i8, ptr %0, i64 72
  %45 = load i32, ptr %44, align 8, !tbaa !44
  %.not.i50 = icmp eq i32 %45, 0
  %46 = getelementptr inbounds nuw i8, ptr %0, i64 64
  %47 = load ptr, ptr %46, align 8, !tbaa !19
  %48 = getelementptr inbounds nuw i8, ptr %0, i64 16
  %49 = load ptr, ptr %48, align 8, !tbaa !3
  br i1 %.not.i50, label %52, label %50

50:                                               ; preds = %41
  %51 = tail call i32 (ptr, ptr, ...) @fprintf(ptr noundef %47, ptr noundef nonnull @.str, ptr noundef %49, ptr noundef nonnull %42) #20
  br label %57

52:                                               ; preds = %41
  %53 = getelementptr inbounds nuw i8, ptr %0, i64 24
  %54 = load ptr, ptr %53, align 8, !tbaa !17
  %55 = tail call i32 @Ver_StreamGetLineNumber(ptr noundef %54) #20
  %56 = tail call i32 (ptr, ptr, ...) @fprintf(ptr noundef %47, ptr noundef nonnull @.str.1, ptr noundef %49, i32 noundef %55, ptr noundef nonnull %42) #20
  br label %57

57:                                               ; preds = %52, %50
  %58 = getelementptr inbounds nuw i8, ptr %0, i64 48
  %59 = load ptr, ptr %58, align 8, !tbaa !33
  %.not.i.i51 = icmp eq ptr %59, null
  br i1 %.not.i.i51, label %Ver_ParsePrintErrorMessage.exit, label %60

60:                                               ; preds = %57
  tail call void @Abc_DesFree(ptr noundef nonnull %59, ptr noundef null) #20
  store ptr null, ptr %58, align 8, !tbaa !33
  br label %Ver_ParsePrintErrorMessage.exit

61:                                               ; preds = %37
  %62 = getelementptr inbounds nuw i8, ptr %.2, i64 1
  %63 = load i8, ptr %62, align 1, !tbaa !73
  %64 = icmp eq i8 %63, 92
  br i1 %64, label %65, label %.loopexit

65:                                               ; preds = %61
  %66 = getelementptr inbounds nuw i8, ptr %.2, i64 2
  br label %67

67:                                               ; preds = %69, %65
  %.038 = phi ptr [ %66, %65 ], [ %70, %69 ]
  %68 = load i8, ptr %.038, align 1, !tbaa !73
  switch i8 %68, label %69 [
    i8 32, label %71
    i8 0, label %.loopexit
  ]

69:                                               ; preds = %67
  %70 = getelementptr inbounds nuw i8, ptr %.038, i64 1
  br label %67, !llvm.loop !95

71:                                               ; preds = %67
  store i8 0, ptr %.038, align 1, !tbaa !73
  br label %.loopexit

.loopexit:                                        ; preds = %9, %67, %61, %71
  %.1 = phi ptr [ %66, %71 ], [ %62, %61 ], [ %66, %67 ], [ %.039, %9 ]
  %.0 = phi i32 [ %36, %71 ], [ %36, %61 ], [ %36, %67 ], [ %8, %9 ]
  store ptr %.1, ptr %1, align 8, !tbaa !92
  store i32 %8, ptr %2, align 4, !tbaa !37
  store i32 %.0, ptr %3, align 4, !tbaa !37
  br label %Ver_ParsePrintErrorMessage.exit

Ver_ParsePrintErrorMessage.exit:                  ; preds = %60, %57, %32, %29, %.loopexit
  %.037 = phi i32 [ 1, %.loopexit ], [ 0, %29 ], [ 0, %32 ], [ 0, %57 ], [ 0, %60 ]
  ret i32 %.037
}